; Function Attrs: mustprogress nounwind uwtable
define hidden void @_ZN21ClassUnloadingContext14purge_nmethodsEv(ptr nocapture noundef nonnull readonly align 8 dereferenceable(26) %0) local_unnamed_addr #0 align 2 {
  %2 = getelementptr inbounds i8, ptr %0, i64 8
  %3 = load i32, ptr %2, align 8
  %.not25 = icmp eq i32 %3, 0
  br i1 %.not25, label %._crit_edge23, label %.lr.ph22

.lr.ph22:                                         ; preds = %1
  %4 = getelementptr inbounds i8, ptr %0, i64 16
  %5 = getelementptr inbounds i8, ptr %0, i64 24
  br label %6

6:                                                ; preds = %.lr.ph22, %._crit_edge
  %7 = phi i32 [ %3, %.lr.ph22 ], [ %24, %._crit_edge ]
  %indvars.iv27 = phi i64 [ 0, %.lr.ph22 ], [ %indvars.iv.next28, %._crit_edge ]
  %.020 = phi i64 [ 0, %.lr.ph22 ], [ %.1.lcssa, %._crit_edge ]
  %8 = load ptr, ptr %4, align 8
  %9 = getelementptr inbounds ptr, ptr %8, i64 %indvars.iv27
  %10 = load ptr, ptr %9, align 8
  %11 = load i32, ptr %10, align 4
  %.not16 = icmp eq i32 %11, 0
  br i1 %.not16, label %._crit_edge, label %.lr.ph

.lr.ph:                                           ; preds = %6
  %12 = getelementptr inbounds i8, ptr %10, i64 8
  %13 = zext i32 %11 to i64
  br label %14

14:                                               ; preds = %.lr.ph, %14
  %indvars.iv = phi i64 [ 0, %.lr.ph ], [ %indvars.iv.next, %14 ]
  %.118 = phi i64 [ %.020, %.lr.ph ], [ %21, %14 ]
  %15 = load ptr, ptr %12, align 8
  %16 = getelementptr inbounds ptr, ptr %15, i64 %indvars.iv
  %17 = load ptr, ptr %16, align 8
  %18 = getelementptr inbounds i8, ptr %17, i64 24
  %19 = load i32, ptr %18, align 8
  %20 = sext i32 %19 to i64
  %21 = add i64 %.118, %20
  %22 = load i8, ptr %5, align 8
  %23 = trunc i8 %22 to i1
  tail call void @_ZN7nmethod5purgeEb(ptr noundef nonnull align 8 dereferenceable(214) %17, i1 noundef zeroext %23) #9
  %indvars.iv.next = add nuw nsw i64 %indvars.iv, 1
  %.not = icmp eq i64 %indvars.iv.next, %13
  br i1 %.not, label %._crit_edge.loopexit, label %14

._crit_edge.loopexit:                             ; preds = %14
  %.pre = load i32, ptr %2, align 8
  br label %._crit_edge

._crit_edge:                                      ; preds = %._crit_edge.loopexit, %6
  %24 = phi i32 [ %7, %6 ], [ %.pre, %._crit_edge.loopexit ]
  %.1.lcssa = phi i64 [ %.020, %6 ], [ %21, %._crit_edge.loopexit ]
  %indvars.iv.next28 = add nuw nsw i64 %indvars.iv27, 1
  %25 = zext i32 %24 to i64
  %26 = icmp ult i64 %indvars.iv.next28, %25
  br i1 %26, label %6, label %._crit_edge23, !llvm.loop !13

._crit_edge23:                                    ; preds = %._crit_edge, %1
  %.0.lcssa = phi i64 [ 0, %1 ], [ %.1.lcssa, %._crit_edge ]
  tail call void @_ZN9CodeCache22maybe_restart_compilerEm(i64 noundef %.0.lcssa) #9
  ret void
}